target datalayout = "e-m:e-p270:32:32-p271:32:32-p272:64:64-i64:64-i128:128-f80:128-n8:16:32:64-S128"
target triple = "x86_64-pc-linux-gnu"

@credssp_ver = internal global i32 0, align 4

; Function Attrs: null_pointer_is_valid sspstrong uwtable
define internal i32 @dissect_credssp_T_errorCode(i1 noundef zeroext %0, ptr noundef %1, i32 noundef %2, ptr noundef %3, ptr noundef %4, i32 noundef %5) #0 {
  %7 = alloca i32, align 4
  %8 = alloca i8, align 1
  %9 = alloca ptr, align 8
  %10 = alloca i32, align 4
  %11 = alloca ptr, align 8
  %12 = alloca ptr, align 8
  %13 = alloca i32, align 4
  %14 = zext i1 %0 to i8
  store i8 %14, ptr %8, align 1
  store ptr %1, ptr %9, align 8
  store i32 %2, ptr %10, align 4
  store ptr %3, ptr %11, align 8
  store ptr %4, ptr %12, align 8
  store i32 %5, ptr %13, align 4
  %15 = load i32, ptr @credssp_ver, align 4
  %16 = icmp slt i32 %15, 3
  br i1 %16, label %17, label %18

17:                                               ; preds = %6
  store i32 0, ptr %7, align 4
  br label %28

18:                                               ; preds = %6
  %19 = load i8, ptr %8, align 1, !range !6, !noundef !7
  %20 = trunc i8 %19 to i1
  %21 = load ptr, ptr %11, align 8
  %22 = load ptr, ptr %12, align 8
  %23 = load ptr, ptr %9, align 8
  %24 = load i32, ptr %10, align 4
  %25 = load i32, ptr %13, align 4
  %26 = call i32 @dissect_ber_integer(i1 noundef zeroext %20, ptr noundef %21, ptr noundef %22, ptr noundef %23, i32 noundef %24, i32 noundef %25, ptr noundef null)
  store i32 %26, ptr %10, align 4
  %27 = load i32, ptr %10, align 4
  store i32 %27, ptr %7, align 4
  br label %28

28:                                               ; preds = %18, %17
  %29 = load i32, ptr %7, align 4
  ret i32 %29
}