; Function Attrs: null_pointer_is_valid sspstrong uwtable
define internal i32 @dissect_credssp_T_errorCode(i1 noundef zeroext %0, ptr noundef %1, i32 noundef %2, ptr noundef %3, ptr noundef %4, i32 noundef %5) #0 {
  %7 = load i32, ptr @credssp_ver, align 4
  %8 = icmp slt i32 %7, 3
  br i1 %8, label %11, label %9

9:                                                ; preds = %6
  %10 = tail call i32 @dissect_ber_integer(i1 noundef zeroext %0, ptr noundef %3, ptr noundef %4, ptr noundef %1, i32 noundef %2, i32 noundef %5, ptr noundef null)
  br label %11

11:                                               ; preds = %6, %9
  %.0 = phi i32 [ %10, %9 ], [ 0, %6 ]
  ret i32 %.0
}